; Function Attrs: nounwind uwtable
define internal fastcc range(i32 0, 8) i32 @socket_connect_result(ptr noundef %0, ptr noundef %1, i32 noundef %2) unnamed_addr #2 {
  %4 = alloca [256 x i8], align 16
  switch i32 %2, label %5 [
    i32 115, label %21
    i32 11, label %21
  ]

5:                                                ; preds = %3
  call void @llvm.lifetime.start.p0(i64 256, ptr nonnull %4) #13
  %.not = icmp eq ptr %0, null
  br i1 %.not, label %19, label %6

6:                                                ; preds = %5
  %7 = getelementptr inbounds nuw i8, ptr %0, i64 2658
  %8 = load i64, ptr %7, align 2
  %9 = and i64 %8, 2147483648
  %.not12 = icmp eq i64 %9, 0
  br i1 %.not12, label %19, label %10

10:                                               ; preds = %6
  %11 = getelementptr inbounds nuw i8, ptr %0, i64 4864
  %12 = load ptr, ptr %11, align 8, !tbaa !108
  %.not13 = icmp eq ptr %12, null
  br i1 %.not13, label %17, label %13

13:                                               ; preds = %10
  %14 = getelementptr inbounds nuw i8, ptr %12, i64 8
  %15 = load i32, ptr %14, align 8, !tbaa !109
  %16 = icmp sgt i32 %15, 0
  br i1 %16, label %17, label %19

17:                                               ; preds = %13, %10
  %18 = call ptr @Curl_strerror(i32 noundef %2, ptr noundef nonnull %4, i64 noundef 256) #13
  call void (ptr, ptr, ...) @Curl_infof(ptr noundef nonnull %0, ptr noundef nonnull @.str.28, ptr noundef %1, ptr noundef %18) #13
  br label %19

19:                                               ; preds = %17, %13, %6, %5
  call void @llvm.lifetime.end.p0(i64 256, ptr nonnull %4) #13
  %20 = getelementptr inbounds nuw i8, ptr %0, i64 3240
  store i32 %2, ptr %20, align 8, !tbaa !122
  br label %21

21:                                               ; preds = %3, %3, %19
  %.0 = phi i32 [ 7, %19 ], [ 0, %3 ], [ 0, %3 ]
  ret i32 %.0
}